(lp0
(lp1
I4
aI5
aI3
aI6
aI0
aI9
aI8
aI7
aI1
aI2
aa(lp2
S'Lillehammer'
p3
aS'Oslo'
p4
aS'Kristiansand'
p5
aS'Stavanger'
p6
aS'Bergen'
p7
aS'\xc5lesund'
p8
aS'Trondheim'
p9
aS'Troms\xf8'
p10
aS'Hammerfest'
p11
aS'Kirkenes'
p12
aaI5525
a.